target datalayout = "e-m:e-p270:32:32-p271:32:32-p272:64:64-i64:64-i128:128-f80:128-n8:16:32:64-S128"
target triple = "x86_64-pc-linux-gnu"

%struct.crypto_ex_data_st = type { ptr, ptr }
%struct.x509_store_ctx_st = type { ptr, ptr, ptr, ptr, ptr, ptr, ptr, ptr, ptr, ptr, ptr, ptr, ptr, ptr, ptr, ptr, ptr, ptr, i32, i32, ptr, ptr, i32, i32, i32, ptr, ptr, ptr, i32, i32, ptr, %struct.crypto_ex_data_st, ptr, i32, ptr, ptr, ptr }

; Function Attrs: nounwind uwtable
define void @X509_STORE_CTX_cleanup(ptr noundef %0) #0 {
  %2 = alloca ptr, align 8
  store ptr %0, ptr %2, align 8, !tbaa !40
  %3 = load ptr, ptr %2, align 8, !tbaa !40
  %4 = getelementptr inbounds nuw %struct.x509_store_ctx_st, ptr %3, i32 0, i32 17
  %5 = load ptr, ptr %4, align 8, !tbaa !130
  %6 = icmp ne ptr %5, null
  br i1 %6, label %7, label %15

7:                                                ; preds = %1
  %8 = load ptr, ptr %2, align 8, !tbaa !40
  %9 = getelementptr inbounds nuw %struct.x509_store_ctx_st, ptr %8, i32 0, i32 17
  %10 = load ptr, ptr %9, align 8, !tbaa !130
  %11 = load ptr, ptr %2, align 8, !tbaa !40
  %12 = call i32 %10(ptr noundef %11)
  %13 = load ptr, ptr %2, align 8, !tbaa !40
  %14 = getelementptr inbounds nuw %struct.x509_store_ctx_st, ptr %13, i32 0, i32 17
  store ptr null, ptr %14, align 8, !tbaa !130
  br label %15

15:                                               ; preds = %7, %1
  %16 = load ptr, ptr %2, align 8, !tbaa !40
  %17 = getelementptr inbounds nuw %struct.x509_store_ctx_st, ptr %16, i32 0, i32 4
  %18 = load ptr, ptr %17, align 8, !tbaa !72
  %19 = icmp ne ptr %18, null
  br i1 %19, label %20, label %32

20:                                               ; preds = %15
  %21 = load ptr, ptr %2, align 8, !tbaa !40
  %22 = getelementptr inbounds nuw %struct.x509_store_ctx_st, ptr %21, i32 0, i32 30
  %23 = load ptr, ptr %22, align 8, !tbaa !117
  %24 = icmp eq ptr %23, null
  br i1 %24, label %25, label %29

25:                                               ; preds = %20
  %26 = load ptr, ptr %2, align 8, !tbaa !40
  %27 = getelementptr inbounds nuw %struct.x509_store_ctx_st, ptr %26, i32 0, i32 4
  %28 = load ptr, ptr %27, align 8, !tbaa !72
  call void @X509_VERIFY_PARAM_free(ptr noundef %28)
  br label %29

29:                                               ; preds = %25, %20
  %30 = load ptr, ptr %2, align 8, !tbaa !40
  %31 = getelementptr inbounds nuw %struct.x509_store_ctx_st, ptr %30, i32 0, i32 4
  store ptr null, ptr %31, align 8, !tbaa !72
  br label %32

32:                                               ; preds = %29, %15
  %33 = load ptr, ptr %2, align 8, !tbaa !40
  %34 = getelementptr inbounds nuw %struct.x509_store_ctx_st, ptr %33, i32 0, i32 21
  %35 = load ptr, ptr %34, align 8, !tbaa !131
  call void @X509_policy_tree_free(ptr noundef %35)
  %36 = load ptr, ptr %2, align 8, !tbaa !40
  %37 = getelementptr inbounds nuw %struct.x509_store_ctx_st, ptr %36, i32 0, i32 21
  store ptr null, ptr %37, align 8, !tbaa !131
  %38 = load ptr, ptr %2, align 8, !tbaa !40
  %39 = getelementptr inbounds nuw %struct.x509_store_ctx_st, ptr %38, i32 0, i32 20
  %40 = load ptr, ptr %39, align 8, !tbaa !61
  call void @OSSL_STACK_OF_X509_free(ptr noundef %40)
  %41 = load ptr, ptr %2, align 8, !tbaa !40
  %42 = getelementptr inbounds nuw %struct.x509_store_ctx_st, ptr %41, i32 0, i32 20
  store ptr null, ptr %42, align 8, !tbaa !61
  %43 = load ptr, ptr %2, align 8, !tbaa !40
  %44 = load ptr, ptr %2, align 8, !tbaa !40
  %45 = getelementptr inbounds nuw %struct.x509_store_ctx_st, ptr %44, i32 0, i32 31
  call void @CRYPTO_free_ex_data(i32 noundef 5, ptr noundef %43, ptr noundef %45)
  %46 = load ptr, ptr %2, align 8, !tbaa !40
  %47 = getelementptr inbounds nuw %struct.x509_store_ctx_st, ptr %46, i32 0, i32 31
  call void @llvm.memset.p0.i64(ptr align 8 %47, i8 0, i64 16, i1 false)
  ret void
}