; Function Attrs: nounwind uwtable
define void @X509_STORE_CTX_cleanup(ptr noundef %0) local_unnamed_addr #0 {
  %2 = getelementptr inbounds nuw i8, ptr %0, i64 136
  %3 = load ptr, ptr %2, align 8, !tbaa !129
  %.not = icmp eq ptr %3, null
  br i1 %.not, label %6, label %4

4:                                                ; preds = %1
  %5 = tail call i32 %3(ptr noundef nonnull %0) #10
  store ptr null, ptr %2, align 8, !tbaa !129
  br label %6

6:                                                ; preds = %4, %1
  %7 = getelementptr inbounds nuw i8, ptr %0, i64 32
  %8 = load ptr, ptr %7, align 8, !tbaa !49
  %.not16 = icmp eq ptr %8, null
  br i1 %.not16, label %15, label %9

9:                                                ; preds = %6
  %10 = getelementptr inbounds nuw i8, ptr %0, i64 216
  %11 = load ptr, ptr %10, align 8, !tbaa !121
  %12 = icmp eq ptr %11, null
  br i1 %12, label %13, label %14

13:                                               ; preds = %9
  tail call void @X509_VERIFY_PARAM_free(ptr noundef nonnull %8) #10
  br label %14

14:                                               ; preds = %13, %9
  store ptr null, ptr %7, align 8, !tbaa !49
  br label %15

15:                                               ; preds = %14, %6
  %16 = getelementptr inbounds nuw i8, ptr %0, i64 160
  %17 = load ptr, ptr %16, align 8, !tbaa !130
  tail call void @X509_policy_tree_free(ptr noundef %17) #10
  store ptr null, ptr %16, align 8, !tbaa !130
  %18 = getelementptr inbounds nuw i8, ptr %0, i64 152
  %19 = load ptr, ptr %18, align 8, !tbaa !56
  tail call void @OSSL_STACK_OF_X509_free(ptr noundef %19) #10
  store ptr null, ptr %18, align 8, !tbaa !56
  %20 = getelementptr inbounds nuw i8, ptr %0, i64 224
  tail call void @CRYPTO_free_ex_data(i32 noundef 5, ptr noundef nonnull %0, ptr noundef nonnull %20) #10
  tail call void @llvm.memset.p0.i64(ptr noundef nonnull align 8 dereferenceable(16) %20, i8 0, i64 16, i1 false)
  ret void
}